target datalayout = "e-m:e-p270:32:32-p271:32:32-p272:64:64-i64:64-i128:128-f80:128-n8:16:32:64-S128"
target triple = "x86_64-pc-linux-gnu"

%union.anon.9 = type { ptr }

@.str.3 = private unnamed_addr constant [5 x i8] c"NAME\00", align 1

; Function Attrs: nounwind uwtable
define i64 @H5DSget_scale_name(i64 noundef %0, ptr noundef %1, i64 noundef %2) #0 {
  %4 = alloca i64, align 8
  %5 = alloca i64, align 8
  %6 = alloca ptr, align 8
  %7 = alloca i64, align 8
  %8 = alloca i64, align 8
  %9 = alloca i64, align 8
  %10 = alloca i64, align 8
  %11 = alloca i32, align 4
  %12 = alloca i64, align 8
  %13 = alloca i64, align 8
  %14 = alloca i32, align 4
  %15 = alloca ptr, align 8
  %16 = alloca i32, align 4
  %17 = alloca i32, align 4
  %18 = alloca %union.anon.9, align 8
  %19 = alloca ptr, align 8
  store i64 %0, ptr %5, align 8, !tbaa !3
  store ptr %1, ptr %6, align 8, !tbaa !14
  store i64 %2, ptr %7, align 8, !tbaa !3
  call void @llvm.lifetime.start.p0(i64 8, ptr %8) #10
  store i64 -1, ptr %8, align 8, !tbaa !3
  call void @llvm.lifetime.start.p0(i64 8, ptr %9) #10
  store i64 -1, ptr %9, align 8, !tbaa !3
  call void @llvm.lifetime.start.p0(i64 8, ptr %10) #10
  store i64 -1, ptr %10, align 8, !tbaa !3
  call void @llvm.lifetime.start.p0(i64 4, ptr %11) #10
  call void @llvm.lifetime.start.p0(i64 8, ptr %12) #10
  call void @llvm.lifetime.start.p0(i64 8, ptr %13) #10
  call void @llvm.lifetime.start.p0(i64 4, ptr %14) #10
  call void @llvm.lifetime.start.p0(i64 8, ptr %15) #10
  store ptr null, ptr %15, align 8, !tbaa !14
  %20 = load i64, ptr %5, align 8, !tbaa !3
  %21 = call i32 @H5Iget_type(i64 noundef %20)
  store i32 %21, ptr %11, align 4, !tbaa !16
  %22 = icmp slt i32 %21, 0
  br i1 %22, label %23, label %24

23:                                               ; preds = %3
  store i64 -1, ptr %4, align 8
  store i32 1, ptr %16, align 4
  br label %153

24:                                               ; preds = %3
  %25 = load i32, ptr %11, align 4, !tbaa !16
  %26 = icmp ne i32 5, %25
  br i1 %26, label %27, label %28

27:                                               ; preds = %24
  store i64 -1, ptr %4, align 8
  store i32 1, ptr %16, align 4
  br label %153

28:                                               ; preds = %24
  %29 = load i64, ptr %5, align 8, !tbaa !3
  %30 = call i32 @H5DSis_scale(i64 noundef %29)
  %31 = icmp sle i32 %30, 0
  br i1 %31, label %32, label %33

32:                                               ; preds = %28
  store i64 -1, ptr %4, align 8
  store i32 1, ptr %16, align 4
  br label %153

33:                                               ; preds = %28
  %34 = load i64, ptr %5, align 8, !tbaa !3
  %35 = call i32 @H5Aexists(i64 noundef %34, ptr noundef @.str.3)
  store i32 %35, ptr %14, align 4, !tbaa !16
  %36 = icmp slt i32 %35, 0
  br i1 %36, label %37, label %38

37:                                               ; preds = %33
  store i64 -1, ptr %4, align 8
  store i32 1, ptr %16, align 4
  br label %153

38:                                               ; preds = %33
  %39 = load i32, ptr %14, align 4, !tbaa !16
  %40 = icmp eq i32 %39, 0
  br i1 %40, label %41, label %42

41:                                               ; preds = %38
  store i64 0, ptr %4, align 8
  store i32 1, ptr %16, align 4
  br label %153

42:                                               ; preds = %38
  %43 = load i64, ptr %5, align 8, !tbaa !3
  %44 = call i64 @H5Aopen(i64 noundef %43, ptr noundef @.str.3, i64 noundef 0)
  store i64 %44, ptr %8, align 8, !tbaa !3
  %45 = icmp slt i64 %44, 0
  br i1 %45, label %46, label %47

46:                                               ; preds = %42
  store i64 -1, ptr %4, align 8
  store i32 1, ptr %16, align 4
  br label %153

47:                                               ; preds = %42
  %48 = load i64, ptr %8, align 8, !tbaa !3
  %49 = call i64 @H5Aget_space(i64 noundef %48)
  store i64 %49, ptr %10, align 8, !tbaa !3
  %50 = icmp slt i64 %49, 0
  br i1 %50, label %51, label %52

51:                                               ; preds = %47
  br label %120

52:                                               ; preds = %47
  %53 = load i64, ptr %8, align 8, !tbaa !3
  %54 = call i64 @H5Aget_type(i64 noundef %53)
  store i64 %54, ptr %9, align 8, !tbaa !3
  %55 = icmp slt i64 %54, 0
  br i1 %55, label %56, label %57

56:                                               ; preds = %52
  br label %120

57:                                               ; preds = %52
  %58 = load i64, ptr %9, align 8, !tbaa !3
  %59 = call i64 @H5Tget_size(i64 noundef %58)
  store i64 %59, ptr %12, align 8, !tbaa !3
  %60 = icmp eq i64 %59, 0
  br i1 %60, label %61, label %62

61:                                               ; preds = %57
  br label %120

62:                                               ; preds = %57
  %63 = load i64, ptr %12, align 8, !tbaa !3
  %64 = mul i64 %63, 1
  %65 = call noalias ptr @malloc(i64 noundef %64) #11
  store ptr %65, ptr %15, align 8, !tbaa !14
  %66 = load ptr, ptr %15, align 8, !tbaa !14
  %67 = icmp eq ptr %66, null
  br i1 %67, label %68, label %69

68:                                               ; preds = %62
  br label %120

69:                                               ; preds = %62
  %70 = load i64, ptr %8, align 8, !tbaa !3
  %71 = load i64, ptr %9, align 8, !tbaa !3
  %72 = load ptr, ptr %15, align 8, !tbaa !14
  %73 = call i32 @H5Aread(i64 noundef %70, i64 noundef %71, ptr noundef %72)
  %74 = icmp slt i32 %73, 0
  br i1 %74, label %75, label %76

75:                                               ; preds = %69
  br label %120

76:                                               ; preds = %69
  %77 = load i64, ptr %7, align 8, !tbaa !3
  %78 = sub i64 %77, 1
  %79 = load i64, ptr %12, align 8, !tbaa !3
  %80 = icmp ult i64 %78, %79
  br i1 %80, label %81, label %84

81:                                               ; preds = %76
  %82 = load i64, ptr %7, align 8, !tbaa !3
  %83 = sub i64 %82, 1
  br label %86

84:                                               ; preds = %76
  %85 = load i64, ptr %12, align 8, !tbaa !3
  br label %86

86:                                               ; preds = %84, %81
  %87 = phi i64 [ %83, %81 ], [ %85, %84 ]
  store i64 %87, ptr %13, align 8, !tbaa !3
  %88 = load ptr, ptr %6, align 8, !tbaa !14
  %89 = icmp ne ptr %88, null
  br i1 %89, label %90, label %97

90:                                               ; preds = %86
  %91 = load ptr, ptr %6, align 8, !tbaa !14
  %92 = load ptr, ptr %15, align 8, !tbaa !14
  %93 = load i64, ptr %13, align 8, !tbaa !3
  call void @llvm.memcpy.p0.p0.i64(ptr align 1 %91, ptr align 1 %92, i64 %93, i1 false)
  %94 = load ptr, ptr %6, align 8, !tbaa !14
  %95 = load i64, ptr %13, align 8, !tbaa !3
  %96 = getelementptr inbounds nuw i8, ptr %94, i64 %95
  store i8 0, ptr %96, align 1, !tbaa !32
  br label %97

97:                                               ; preds = %90, %86
  %98 = load i64, ptr %9, align 8, !tbaa !3
  %99 = call i32 @H5Tclose(i64 noundef %98)
  %100 = icmp slt i32 %99, 0
  br i1 %100, label %101, label %102

101:                                              ; preds = %97
  br label %120

102:                                              ; preds = %97
  %103 = load i64, ptr %8, align 8, !tbaa !3
  %104 = call i32 @H5Aclose(i64 noundef %103)
  %105 = icmp slt i32 %104, 0
  br i1 %105, label %106, label %107

106:                                              ; preds = %102
  br label %120

107:                                              ; preds = %102
  %108 = load i64, ptr %10, align 8, !tbaa !3
  %109 = call i32 @H5Sclose(i64 noundef %108)
  %110 = icmp slt i32 %109, 0
  br i1 %110, label %111, label %112

111:                                              ; preds = %107
  br label %120

112:                                              ; preds = %107
  %113 = load ptr, ptr %15, align 8, !tbaa !14
  %114 = icmp ne ptr %113, null
  br i1 %114, label %115, label %117

115:                                              ; preds = %112
  %116 = load ptr, ptr %15, align 8, !tbaa !14
  call void @free(ptr noundef %116) #10
  br label %117

117:                                              ; preds = %115, %112
  %118 = load i64, ptr %12, align 8, !tbaa !3
  %119 = sub i64 %118, 1
  store i64 %119, ptr %4, align 8
  store i32 1, ptr %16, align 4
  br label %153

120:                                              ; preds = %111, %106, %101, %75, %68, %61, %56, %51
  call void @llvm.lifetime.start.p0(i64 4, ptr %17) #10
  call void @llvm.lifetime.start.p0(i64 8, ptr %18) #10
  call void @llvm.lifetime.start.p0(i64 8, ptr %19) #10
  %121 = call i32 @H5Eauto_is_v2(i64 noundef 0, ptr noundef %17)
  %122 = load i32, ptr %17, align 4, !tbaa !16
  %123 = icmp ne i32 %122, 0
  br i1 %123, label %124, label %127

124:                                              ; preds = %120
  %125 = call i32 @H5Eget_auto2(i64 noundef 0, ptr noundef %18, ptr noundef %19)
  %126 = call i32 @H5Eset_auto2(i64 noundef 0, ptr noundef null, ptr noundef null)
  br label %130

127:                                              ; preds = %120
  %128 = call i32 @H5Eget_auto1(ptr noundef %18, ptr noundef %19)
  %129 = call i32 @H5Eset_auto1(ptr noundef null, ptr noundef null)
  br label %130

130:                                              ; preds = %127, %124
  %131 = load i64, ptr %8, align 8, !tbaa !3
  %132 = call i32 @H5Aclose(i64 noundef %131)
  %133 = load i64, ptr %9, align 8, !tbaa !3
  %134 = call i32 @H5Tclose(i64 noundef %133)
  %135 = load i64, ptr %10, align 8, !tbaa !3
  %136 = call i32 @H5Sclose(i64 noundef %135)
  %137 = load i32, ptr %17, align 4, !tbaa !16
  %138 = icmp ne i32 %137, 0
  br i1 %138, label %139, label %143

139:                                              ; preds = %130
  %140 = load ptr, ptr %18, align 8, !tbaa !32
  %141 = load ptr, ptr %19, align 8, !tbaa !22
  %142 = call i32 @H5Eset_auto2(i64 noundef 0, ptr noundef %140, ptr noundef %141)
  br label %147

143:                                              ; preds = %130
  %144 = load ptr, ptr %18, align 8, !tbaa !32
  %145 = load ptr, ptr %19, align 8, !tbaa !22
  %146 = call i32 @H5Eset_auto1(ptr noundef %144, ptr noundef %145)
  br label %147

147:                                              ; preds = %143, %139
  call void @llvm.lifetime.end.p0(i64 8, ptr %19) #10
  call void @llvm.lifetime.end.p0(i64 8, ptr %18) #10
  call void @llvm.lifetime.end.p0(i64 4, ptr %17) #10
  %148 = load ptr, ptr %15, align 8, !tbaa !14
  %149 = icmp ne ptr %148, null
  br i1 %149, label %150, label %152

150:                                              ; preds = %147
  %151 = load ptr, ptr %15, align 8, !tbaa !14
  call void @free(ptr noundef %151) #10
  br label %152

152:                                              ; preds = %150, %147
  store i64 -1, ptr %4, align 8
  store i32 1, ptr %16, align 4
  br label %153

153:                                              ; preds = %152, %117, %46, %41, %37, %32, %27, %23
  call void @llvm.lifetime.end.p0(i64 8, ptr %15) #10
  call void @llvm.lifetime.end.p0(i64 4, ptr %14) #10
  call void @llvm.lifetime.end.p0(i64 8, ptr %13) #10
  call void @llvm.lifetime.end.p0(i64 8, ptr %12) #10
  call void @llvm.lifetime.end.p0(i64 4, ptr %11) #10
  call void @llvm.lifetime.end.p0(i64 8, ptr %10) #10
  call void @llvm.lifetime.end.p0(i64 8, ptr %9) #10
  call void @llvm.lifetime.end.p0(i64 8, ptr %8) #10
  %154 = load i64, ptr %4, align 8
  ret i64 %154
}