; Function Attrs: nounwind uwtable
define i64 @H5DSget_scale_name(i64 noundef %0, ptr noundef writeonly captures(address_is_null) %1, i64 noundef %2) local_unnamed_addr #0 {
  %4 = alloca i32, align 4
  %5 = alloca %union.anon.9, align 8
  %6 = alloca ptr, align 8
  %7 = tail call i32 @H5Iget_type(i64 noundef %0) #10
  %.not = icmp eq i32 %7, 5
  br i1 %.not, label %8, label %72

8:                                                ; preds = %3
  %9 = tail call i32 @H5DSis_scale(i64 noundef %0)
  %10 = icmp slt i32 %9, 1
  br i1 %10, label %72, label %11

11:                                               ; preds = %8
  %12 = tail call i32 @H5Aexists(i64 noundef %0, ptr noundef nonnull @.str.3) #10
  %13 = icmp slt i32 %12, 0
  br i1 %13, label %72, label %14

14:                                               ; preds = %11
  %15 = icmp eq i32 %12, 0
  br i1 %15, label %72, label %16

16:                                               ; preds = %14
  %17 = tail call i64 @H5Aopen(i64 noundef %0, ptr noundef nonnull @.str.3, i64 noundef 0) #10
  %18 = icmp slt i64 %17, 0
  br i1 %18, label %72, label %19

19:                                               ; preds = %16
  %20 = tail call i64 @H5Aget_space(i64 noundef %17) #10
  %21 = icmp slt i64 %20, 0
  br i1 %21, label %50, label %22

22:                                               ; preds = %19
  %23 = tail call i64 @H5Aget_type(i64 noundef %17) #10
  %24 = icmp slt i64 %23, 0
  br i1 %24, label %50, label %25

25:                                               ; preds = %22
  %26 = tail call i64 @H5Tget_size(i64 noundef %23) #10
  %27 = icmp eq i64 %26, 0
  br i1 %27, label %50, label %28

28:                                               ; preds = %25
  %29 = tail call noalias ptr @malloc(i64 noundef %26) #11
  %30 = icmp eq ptr %29, null
  br i1 %30, label %50, label %31

31:                                               ; preds = %28
  %32 = tail call i32 @H5Aread(i64 noundef %17, i64 noundef %23, ptr noundef nonnull %29) #10
  %33 = icmp slt i32 %32, 0
  br i1 %33, label %50, label %34

34:                                               ; preds = %31
  %.not46 = icmp eq ptr %1, null
  br i1 %.not46, label %39, label %35

35:                                               ; preds = %34
  %36 = add i64 %2, -1
  %37 = tail call i64 @llvm.umin.i64(i64 %36, i64 %26)
  tail call void @llvm.memcpy.p0.p0.i64(ptr nonnull align 1 %1, ptr nonnull align 1 %29, i64 %37, i1 false)
  %38 = getelementptr inbounds nuw i8, ptr %1, i64 %37
  store i8 0, ptr %38, align 1, !tbaa !17
  br label %39

39:                                               ; preds = %35, %34
  %40 = tail call i32 @H5Tclose(i64 noundef %23) #10
  %41 = icmp slt i32 %40, 0
  br i1 %41, label %50, label %42

42:                                               ; preds = %39
  %43 = tail call i32 @H5Aclose(i64 noundef %17) #10
  %44 = icmp slt i32 %43, 0
  br i1 %44, label %50, label %45

45:                                               ; preds = %42
  %46 = tail call i32 @H5Sclose(i64 noundef %20) #10
  %47 = icmp slt i32 %46, 0
  br i1 %47, label %50, label %48

48:                                               ; preds = %45
  tail call void @free(ptr noundef nonnull %29) #10
  %49 = add i64 %26, -1
  br label %72

50:                                               ; preds = %45, %42, %39, %31, %28, %25, %22, %19
  %.036 = phi i64 [ -1, %19 ], [ %23, %22 ], [ %23, %25 ], [ %23, %28 ], [ %23, %31 ], [ %23, %39 ], [ %23, %42 ], [ %23, %45 ]
  %.0 = phi ptr [ null, %19 ], [ null, %22 ], [ null, %25 ], [ null, %28 ], [ %29, %31 ], [ %29, %39 ], [ %29, %42 ], [ %29, %45 ]
  call void @llvm.lifetime.start.p0(i64 4, ptr nonnull %4) #10
  call void @llvm.lifetime.start.p0(i64 8, ptr nonnull %5) #10
  call void @llvm.lifetime.start.p0(i64 8, ptr nonnull %6) #10
  %51 = call i32 @H5Eauto_is_v2(i64 noundef 0, ptr noundef nonnull %4) #10
  %52 = load i32, ptr %4, align 4, !tbaa !14
  %.not47 = icmp eq i32 %52, 0
  br i1 %.not47, label %56, label %53

53:                                               ; preds = %50
  %54 = call i32 @H5Eget_auto2(i64 noundef 0, ptr noundef nonnull %5, ptr noundef nonnull %6) #10
  %55 = call i32 @H5Eset_auto2(i64 noundef 0, ptr noundef null, ptr noundef null) #10
  br label %59

56:                                               ; preds = %50
  %57 = call i32 @H5Eget_auto1(ptr noundef nonnull %5, ptr noundef nonnull %6) #10
  %58 = call i32 @H5Eset_auto1(ptr noundef null, ptr noundef null) #10
  br label %59

59:                                               ; preds = %56, %53
  %60 = call i32 @H5Aclose(i64 noundef %17) #10
  %61 = call i32 @H5Tclose(i64 noundef %.036) #10
  %62 = call i32 @H5Sclose(i64 noundef %20) #10
  %63 = load i32, ptr %4, align 4, !tbaa !14
  %.not48 = icmp eq i32 %63, 0
  %64 = load ptr, ptr %5, align 8, !tbaa !17
  %65 = load ptr, ptr %6, align 8, !tbaa !33
  br i1 %.not48, label %68, label %66

66:                                               ; preds = %59
  %67 = call i32 @H5Eset_auto2(i64 noundef 0, ptr noundef %64, ptr noundef %65) #10
  br label %70

68:                                               ; preds = %59
  %69 = call i32 @H5Eset_auto1(ptr noundef %64, ptr noundef %65) #10
  br label %70

70:                                               ; preds = %68, %66
  call void @llvm.lifetime.end.p0(i64 8, ptr nonnull %6) #10
  call void @llvm.lifetime.end.p0(i64 8, ptr nonnull %5) #10
  call void @llvm.lifetime.end.p0(i64 4, ptr nonnull %4) #10
  %.not49 = icmp eq ptr %.0, null
  br i1 %.not49, label %72, label %71

71:                                               ; preds = %70
  call void @free(ptr noundef nonnull %.0) #10
  br label %72

72:                                               ; preds = %70, %71, %16, %14, %11, %8, %3, %48
  %.035 = phi i64 [ %49, %48 ], [ -1, %3 ], [ -1, %8 ], [ -1, %11 ], [ 0, %14 ], [ -1, %16 ], [ -1, %71 ], [ -1, %70 ]
  ret i64 %.035
}